; Function Attrs: mustprogress nofree norecurse nosync nounwind memory(argmem: readwrite) uwtable
define hidden void @_ZNK19OpenColorIO_v2_5dev11LogRenderer5applyEPKvPvl(ptr noundef nonnull readonly align 8 captures(none) dereferenceable(12) %0, ptr noundef readonly captures(none) %1, ptr noundef captures(none) %2, i64 noundef %3) unnamed_addr #8 align 2 {
  %5 = icmp sgt i64 %3, 0
  br i1 %5, label %.lr.ph, label %._crit_edge

.lr.ph:                                           ; preds = %4
  %6 = getelementptr inbounds nuw i8, ptr %0, i64 8
  br label %7

._crit_edge:                                      ; preds = %7, %4
  ret void

7:                                                ; preds = %.lr.ph, %7
  %.019 = phi ptr [ %1, %.lr.ph ], [ %26, %7 ]
  %.01518 = phi i64 [ 0, %.lr.ph ], [ %28, %7 ]
  %.01617 = phi ptr [ %2, %.lr.ph ], [ %27, %7 ]
  %8 = getelementptr inbounds nuw i8, ptr %.019, i64 12
  %9 = load float, ptr %8, align 4, !tbaa !111
  tail call void @llvm.memcpy.p0.p0.i64(ptr noundef nonnull align 4 dereferenceable(16) %.01617, ptr noundef nonnull align 4 dereferenceable(16) %.019, i64 16, i1 false)
  %10 = load float, ptr %.01617, align 4, !tbaa !111
  %11 = fcmp ogt float %10, 0x3810000000000000
  %.sroa.speculated15.i = select i1 %11, float %10, float 0x3810000000000000
  %12 = getelementptr inbounds nuw i8, ptr %.01617, i64 4
  %13 = load float, ptr %12, align 4, !tbaa !111
  %14 = fcmp ogt float %13, 0x3810000000000000
  %.sroa.speculated12.i = select i1 %14, float %13, float 0x3810000000000000
  %15 = getelementptr inbounds nuw i8, ptr %.01617, i64 8
  %16 = load float, ptr %15, align 4, !tbaa !111
  %17 = fcmp ogt float %16, 0x3810000000000000
  %.sroa.speculated.i = select i1 %17, float %16, float 0x3810000000000000
  %18 = tail call float @llvm.log2.f32(float %.sroa.speculated15.i), !tbaa !112
  store float %18, ptr %.01617, align 4, !tbaa !111
  %19 = tail call float @llvm.log2.f32(float %.sroa.speculated12.i), !tbaa !112
  store float %19, ptr %12, align 4, !tbaa !111
  %20 = tail call float @llvm.log2.f32(float %.sroa.speculated.i), !tbaa !112
  store float %20, ptr %15, align 4, !tbaa !111
  %21 = load float, ptr %6, align 8, !tbaa !49
  %22 = fmul float %18, %21
  store float %22, ptr %.01617, align 4, !tbaa !111
  %23 = fmul float %19, %21
  store float %23, ptr %12, align 4, !tbaa !111
  %24 = fmul float %20, %21
  store float %24, ptr %15, align 4, !tbaa !111
  %25 = getelementptr inbounds nuw i8, ptr %.01617, i64 12
  store float %9, ptr %25, align 4, !tbaa !111
  %26 = getelementptr inbounds nuw i8, ptr %.019, i64 16
  %27 = getelementptr inbounds nuw i8, ptr %.01617, i64 16
  %28 = add nuw nsw i64 %.01518, 1
  %exitcond.not = icmp eq i64 %28, %3
  br i1 %exitcond.not, label %._crit_edge, label %7, !llvm.loop !113
}